#include <math.h>
#include <stdio.h>
#include <stdlib.h>
#include <string.h>


int main()
{
    int r,c,i,j,k;
    int a[8][8];

    scanf("%d,%d", &r, &c);
    for (i=0; i<r; i++) {
        for (j=0; j<c; j++) {
            scanf("%d",&a[i][j]);
        }
    }

	for(i=0;i<r;i++)
	{
		for(j=0,k=0;j<c;j++)
		{
			if(a[i][j]>a[i][k])
			{
				k=j;
			}
		}
		for(j=0;j<r;j++)
		{
			if(a[i][k]>a[j][k])
				break;
		}
		if(j==r)
		{
			printf("%d+%d",i,k);
			break;
		}
	}
	if(i==r)
		printf("No");
	

	return 0;
}